(dp0
S'OutputMode'
p1
VNormal
p2
sS'Duplex'
p3
VDuplexTumble
p4
sS'number-up'
p5
V2
p6
sS'orientation-requested'
p7
V3
p8
sS'print-color-mode'
p9
Vcolor
p10
sS'PageSize'
p11
VA4
p12
sS'print-quality'
p13
V4
p14
sS'job-preserved'
p15
VTrue
p16
sS'MediaType'
p17
VPlain
p18
sS'number-of-documents'
p19
V1
p20
sS'number-up-layout'
p21
Vlrtb
p22
sS'document-format'
p23
Vapplication/pdf
p24
sS'InputSlot'
p25
VAuto
p26
sS'job-media-sheets-completed'
p27
V2
p28
s.